; Function Attrs: mustprogress nofree norecurse nosync nounwind willreturn memory(argmem: write) uwtable
define hidden noundef ptr @_Z33pj_projection_specific_setup_nzmgP8PJconsts(ptr noundef returned writeonly initializes((104, 120), (168, 176), (184, 192), (440, 472)) %0) local_unnamed_addr #1 {
  %2 = getelementptr inbounds nuw i8, ptr %0, i64 168
  store double 0x415854E500000000, ptr %2, align 8, !tbaa !3
  %3 = getelementptr inbounds nuw i8, ptr %0, i64 184
  store double 0x3E850AE666EC0537, ptr %3, align 8, !tbaa !36
  %4 = getelementptr inbounds nuw i8, ptr %0, i64 440
  store double 0x400827C57763A87F, ptr %4, align 8, !tbaa !37
  %5 = getelementptr inbounds nuw i8, ptr %0, i64 448
  store double 0xBFE6E6127FF9D971, ptr %5, align 8, !tbaa !38
  %6 = getelementptr inbounds nuw i8, ptr %0, i64 456
  store double 2.510000e+06, ptr %6, align 8, !tbaa !39
  %7 = getelementptr inbounds nuw i8, ptr %0, i64 464
  store double 6.023150e+06, ptr %7, align 8, !tbaa !40
  %8 = getelementptr inbounds nuw i8, ptr %0, i64 112
  store ptr @_ZL14nzmg_e_inverse5PJ_XYP8PJconsts, ptr %8, align 8, !tbaa !41
  %9 = getelementptr inbounds nuw i8, ptr %0, i64 104
  store ptr @_ZL14nzmg_e_forward5PJ_LPP8PJconsts, ptr %9, align 8, !tbaa !42
  ret ptr %0
}